                                      1 ;--------------------------------------------------------
                                      2 ; File Created by SDCC : free open source ANSI-C Compiler
                                      3 ; Version 3.5.0 #9253 (Mar 24 2016) (Linux)
                                      4 ; This file was generated Tue Apr 17 18:31:13 2018
                                      5 ;--------------------------------------------------------
                                      6 	.module but_int01
                                      7 	.optsdcc -mstm8
                                      8 	
                                      9 ;--------------------------------------------------------
                                     10 ; Public variables in this module
                                     11 ;--------------------------------------------------------
                                     12 	.globl _main
                                     13 	.globl _pin_cfg
                                     14 	.globl _pin_int
                                     15 ;--------------------------------------------------------
                                     16 ; ram data
                                     17 ;--------------------------------------------------------
                                     18 	.area DATA
                                     19 ;--------------------------------------------------------
                                     20 ; ram data
                                     21 ;--------------------------------------------------------
                                     22 	.area INITIALIZED
                                     23 ;--------------------------------------------------------
                                     24 ; Stack segment in internal ram 
                                     25 ;--------------------------------------------------------
                                     26 	.area	SSEG
      000001                         27 __start__stack:
      000001                         28 	.ds	1
                                     29 
                                     30 ;--------------------------------------------------------
                                     31 ; absolute external ram data
                                     32 ;--------------------------------------------------------
                                     33 	.area DABS (ABS)
                                     34 ;--------------------------------------------------------
                                     35 ; interrupt vector 
                                     36 ;--------------------------------------------------------
                                     37 	.area HOME
      008000                         38 __interrupt_vect:
      008000 82 00 80 83             39 	int s_GSINIT ;reset
      008004 82 00 00 00             40 	int 0x0000 ;trap
      008008 82 00 00 00             41 	int 0x0000 ;int0
      00800C 82 00 00 00             42 	int 0x0000 ;int1
      008010 82 00 00 00             43 	int 0x0000 ;int2
      008014 82 00 00 00             44 	int 0x0000 ;int3
      008018 82 00 80 AE             45 	int _pin_int ;int4
      00801C 82 00 00 00             46 	int 0x0000 ;int5
      008020 82 00 00 00             47 	int 0x0000 ;int6
      008024 82 00 00 00             48 	int 0x0000 ;int7
      008028 82 00 00 00             49 	int 0x0000 ;int8
      00802C 82 00 00 00             50 	int 0x0000 ;int9
      008030 82 00 00 00             51 	int 0x0000 ;int10
      008034 82 00 00 00             52 	int 0x0000 ;int11
      008038 82 00 00 00             53 	int 0x0000 ;int12
      00803C 82 00 00 00             54 	int 0x0000 ;int13
      008040 82 00 00 00             55 	int 0x0000 ;int14
      008044 82 00 00 00             56 	int 0x0000 ;int15
      008048 82 00 00 00             57 	int 0x0000 ;int16
      00804C 82 00 00 00             58 	int 0x0000 ;int17
      008050 82 00 00 00             59 	int 0x0000 ;int18
      008054 82 00 00 00             60 	int 0x0000 ;int19
      008058 82 00 00 00             61 	int 0x0000 ;int20
      00805C 82 00 00 00             62 	int 0x0000 ;int21
      008060 82 00 00 00             63 	int 0x0000 ;int22
      008064 82 00 00 00             64 	int 0x0000 ;int23
      008068 82 00 00 00             65 	int 0x0000 ;int24
      00806C 82 00 00 00             66 	int 0x0000 ;int25
      008070 82 00 00 00             67 	int 0x0000 ;int26
      008074 82 00 00 00             68 	int 0x0000 ;int27
      008078 82 00 00 00             69 	int 0x0000 ;int28
      00807C 82 00 00 00             70 	int 0x0000 ;int29
                                     71 ;--------------------------------------------------------
                                     72 ; global & static initialisations
                                     73 ;--------------------------------------------------------
                                     74 	.area HOME
                                     75 	.area GSINIT
                                     76 	.area GSFINAL
                                     77 	.area GSINIT
      008083                         78 __sdcc_gs_init_startup:
      008083                         79 __sdcc_init_data:
                                     80 ; stm8_genXINIT() start
      008083 AE 00 00         [ 2]   81 	ldw x, #l_DATA
      008086 27 07            [ 1]   82 	jreq	00002$
      008088                         83 00001$:
      008088 72 4F 00 00      [ 1]   84 	clr (s_DATA - 1, x)
      00808C 5A               [ 2]   85 	decw x
      00808D 26 F9            [ 1]   86 	jrne	00001$
      00808F                         87 00002$:
      00808F AE 00 00         [ 2]   88 	ldw	x, #l_INITIALIZER
      008092 27 09            [ 1]   89 	jreq	00004$
      008094                         90 00003$:
      008094 D6 81 0F         [ 1]   91 	ld	a, (s_INITIALIZER - 1, x)
      008097 D7 00 00         [ 1]   92 	ld	(s_INITIALIZED - 1, x), a
      00809A 5A               [ 2]   93 	decw	x
      00809B 26 F7            [ 1]   94 	jrne	00003$
      00809D                         95 00004$:
                                     96 ; stm8_genXINIT() end
                                     97 	.area GSFINAL
      00809D CC 80 80         [ 2]   98 	jp	__sdcc_program_startup
                                     99 ;--------------------------------------------------------
                                    100 ; Home
                                    101 ;--------------------------------------------------------
                                    102 	.area HOME
                                    103 	.area HOME
      008080                        104 __sdcc_program_startup:
      008080 CC 80 F2         [ 2]  105 	jp	_main
                                    106 ;	return from main will return to caller
                                    107 ;--------------------------------------------------------
                                    108 ; code
                                    109 ;--------------------------------------------------------
                                    110 	.area CODE
                                    111 ;	./but_int01.c: 4: static void delay(unsigned int t)
                                    112 ;	-----------------------------------------
                                    113 ;	 function delay
                                    114 ;	-----------------------------------------
      0080A0                        115 _delay:
      0080A0 52 02            [ 2]  116 	sub	sp, #2
                                    117 ;	./but_int01.c: 6: while(t--);
      0080A2 1E 05            [ 2]  118 	ldw	x, (0x05, sp)
      0080A4                        119 00101$:
      0080A4 1F 01            [ 2]  120 	ldw	(0x01, sp), x
      0080A6 5A               [ 2]  121 	decw	x
      0080A7 16 01            [ 2]  122 	ldw	y, (0x01, sp)
      0080A9 26 F9            [ 1]  123 	jrne	00101$
      0080AB 5B 02            [ 2]  124 	addw	sp, #2
      0080AD 81               [ 4]  125 	ret
                                    126 ;	./but_int01.c: 9: extern void pin_int(void) __interrupt(4)
                                    127 ;	-----------------------------------------
                                    128 ;	 function pin_int
                                    129 ;	-----------------------------------------
      0080AE                        130 _pin_int:
                                    131 ;	./but_int01.c: 11: if(GPIOD->IDR & 0b00010000)
      0080AE AE 50 10         [ 2]  132 	ldw	x, #0x5010
      0080B1 F6               [ 1]  133 	ld	a, (x)
      0080B2 A5 10            [ 1]  134 	bcp	a, #0x10
      0080B4 27 09            [ 1]  135 	jreq	00102$
                                    136 ;	./but_int01.c: 13: GPIOB->ODR ^= 0b00100000;
      0080B6 AE 50 05         [ 2]  137 	ldw	x, #0x5005
      0080B9 F6               [ 1]  138 	ld	a, (x)
      0080BA A8 20            [ 1]  139 	xor	a, #0x20
      0080BC F7               [ 1]  140 	ld	(x), a
      0080BD 20 07            [ 2]  141 	jra	00104$
      0080BF                        142 00102$:
                                    143 ;	./but_int01.c: 16: GPIOB->ODR |= 0b00100000;
      0080BF AE 50 05         [ 2]  144 	ldw	x, #0x5005
      0080C2 F6               [ 1]  145 	ld	a, (x)
      0080C3 AA 20            [ 1]  146 	or	a, #0x20
      0080C5 F7               [ 1]  147 	ld	(x), a
      0080C6                        148 00104$:
      0080C6 80               [11]  149 	iret
                                    150 ;	./but_int01.c: 22: void pin_cfg()  //функция настройки GPIO
                                    151 ;	-----------------------------------------
                                    152 ;	 function pin_cfg
                                    153 ;	-----------------------------------------
      0080C7                        154 _pin_cfg:
                                    155 ;	./but_int01.c: 24: GPIOB->DDR |= 0b00100000;
      0080C7 AE 50 07         [ 2]  156 	ldw	x, #0x5007
      0080CA F6               [ 1]  157 	ld	a, (x)
      0080CB AA 20            [ 1]  158 	or	a, #0x20
      0080CD F7               [ 1]  159 	ld	(x), a
                                    160 ;	./but_int01.c: 25: GPIOB->CR1 |= 0b00100000;
      0080CE AE 50 08         [ 2]  161 	ldw	x, #0x5008
      0080D1 F6               [ 1]  162 	ld	a, (x)
      0080D2 AA 20            [ 1]  163 	or	a, #0x20
      0080D4 F7               [ 1]  164 	ld	(x), a
                                    165 ;	./but_int01.c: 26: GPIOD->CR1 |= 0b00010000;
      0080D5 AE 50 12         [ 2]  166 	ldw	x, #0x5012
      0080D8 F6               [ 1]  167 	ld	a, (x)
      0080D9 AA 10            [ 1]  168 	or	a, #0x10
      0080DB F7               [ 1]  169 	ld	(x), a
                                    170 ;	./but_int01.c: 27: GPIOD->CR2 |= 0b00010000;
      0080DC AE 50 13         [ 2]  171 	ldw	x, #0x5013
      0080DF F6               [ 1]  172 	ld	a, (x)
      0080E0 AA 10            [ 1]  173 	or	a, #0x10
      0080E2 F7               [ 1]  174 	ld	(x), a
                                    175 ;	./but_int01.c: 28: GPIOB->ODR |= 0b00100000;
      0080E3 AE 50 05         [ 2]  176 	ldw	x, #0x5005
      0080E6 F6               [ 1]  177 	ld	a, (x)
      0080E7 AA 20            [ 1]  178 	or	a, #0x20
      0080E9 F7               [ 1]  179 	ld	(x), a
                                    180 ;	./but_int01.c: 29: EXTI->CR1 |= 0b11000000;
      0080EA AE 50 A0         [ 2]  181 	ldw	x, #0x50a0
      0080ED F6               [ 1]  182 	ld	a, (x)
      0080EE AA C0            [ 1]  183 	or	a, #0xc0
      0080F0 F7               [ 1]  184 	ld	(x), a
      0080F1 81               [ 4]  185 	ret
                                    186 ;	./but_int01.c: 32: int main( void )    //установка портов и пинов
                                    187 ;	-----------------------------------------
                                    188 ;	 function main
                                    189 ;	-----------------------------------------
      0080F2                        190 _main:
                                    191 ;	./but_int01.c: 35: CLK->CKDIVR |= 4; // коэффициент деления частоты HSI-генератора (16MHz)
      0080F2 AE 50 C6         [ 2]  192 	ldw	x, #0x50c6
      0080F5 F6               [ 1]  193 	ld	a, (x)
      0080F6 AA 04            [ 1]  194 	or	a, #0x04
      0080F8 F7               [ 1]  195 	ld	(x), a
                                    196 ;	./but_int01.c: 37: pin_cfg();  //функция настройки GPIO
      0080F9 CD 80 C7         [ 4]  197 	call	_pin_cfg
                                    198 ;	./but_int01.c: 39: rim(); // разрешение прерывания!
      0080FC 9A               [ 1]  199 	rim 
                                    200 ;	./but_int01.c: 42: while(1)  //бесконечный цикл        
      0080FD                        201 00102$:
                                    202 ;	./but_int01.c: 44: delay(5000);
      0080FD 4B 88            [ 1]  203 	push	#0x88
      0080FF 4B 13            [ 1]  204 	push	#0x13
      008101 CD 80 A0         [ 4]  205 	call	_delay
      008104 5B 02            [ 2]  206 	addw	sp, #2
                                    207 ;	./but_int01.c: 45: GPIOB->ODR ^= 0b00100000;
      008106 AE 50 05         [ 2]  208 	ldw	x, #0x5005
      008109 F6               [ 1]  209 	ld	a, (x)
      00810A A8 20            [ 1]  210 	xor	a, #0x20
      00810C F7               [ 1]  211 	ld	(x), a
      00810D 20 EE            [ 2]  212 	jra	00102$
      00810F 81               [ 4]  213 	ret
                                    214 	.area CODE
                                    215 	.area INITIALIZER
                                    216 	.area CABS (ABS)
