                                      1 ;--------------------------------------------------------
                                      2 ; File Created by SDCC : free open source ANSI-C Compiler
                                      3 ; Version 3.5.0 #9253 (Mar 24 2016) (Linux)
                                      4 ; This file was generated Tue Apr 17 20:37:38 2018
                                      5 ;--------------------------------------------------------
                                      6 	.module run_fire_but02
                                      7 	.optsdcc -mstm8
                                      8 	
                                      9 ;--------------------------------------------------------
                                     10 ; Public variables in this module
                                     11 ;--------------------------------------------------------
                                     12 	.globl _main
                                     13 	.globl _buttonD4
                                     14 	.globl _runLdDn
                                     15 	.globl _runLdUp
                                     16 	.globl _RunningDn
                                     17 	.globl _RunningUp
                                     18 	.globl _Pin
                                     19 	.globl _delay
                                     20 	.globl _delay_ms
                                     21 	.globl _TIM4_cfg
                                     22 	.globl _delay_interrupt
                                     23 	.globl _b
                                     24 	.globl _bs
                                     25 	.globl _msb
                                     26 	.globl _ms
                                     27 	.globl _s
                                     28 	.globl _n
                                     29 	.globl _count
                                     30 ;--------------------------------------------------------
                                     31 ; ram data
                                     32 ;--------------------------------------------------------
                                     33 	.area DATA
      000000                         34 _count::
      000000                         35 	.ds 2
      000002                         36 _n::
      000002                         37 	.ds 1
                                     38 ;--------------------------------------------------------
                                     39 ; ram data
                                     40 ;--------------------------------------------------------
                                     41 	.area INITIALIZED
      000000                         42 _s::
      000000                         43 	.ds 4
      000004                         44 _ms::
      000004                         45 	.ds 1
      000005                         46 _msb::
      000005                         47 	.ds 1
      000006                         48 _bs::
      000006                         49 	.ds 1
      000007                         50 _b::
      000007                         51 	.ds 2
                                     52 ;--------------------------------------------------------
                                     53 ; Stack segment in internal ram 
                                     54 ;--------------------------------------------------------
                                     55 	.area	SSEG
      000000                         56 __start__stack:
      000000                         57 	.ds	1
                                     58 
                                     59 ;--------------------------------------------------------
                                     60 ; absolute external ram data
                                     61 ;--------------------------------------------------------
                                     62 	.area DABS (ABS)
                                     63 ;--------------------------------------------------------
                                     64 ; interrupt vector 
                                     65 ;--------------------------------------------------------
                                     66 	.area HOME
      000000                         67 __interrupt_vect:
      000000 82v00u00u00             68 	int s_GSINIT ;reset
      000004 82 00 00 00             69 	int 0x0000 ;trap
      000008 82 00 00 00             70 	int 0x0000 ;int0
      00000C 82 00 00 00             71 	int 0x0000 ;int1
      000010 82 00 00 00             72 	int 0x0000 ;int2
      000014 82 00 00 00             73 	int 0x0000 ;int3
      000018 82 00 00 00             74 	int 0x0000 ;int4
      00001C 82 00 00 00             75 	int 0x0000 ;int5
      000020 82 00 00 00             76 	int 0x0000 ;int6
      000024 82 00 00 00             77 	int 0x0000 ;int7
      000028 82 00 00 00             78 	int 0x0000 ;int8
      00002C 82 00 00 00             79 	int 0x0000 ;int9
      000030 82 00 00 00             80 	int 0x0000 ;int10
      000034 82 00 00 00             81 	int 0x0000 ;int11
      000038 82 00 00 00             82 	int 0x0000 ;int12
      00003C 82 00 00 00             83 	int 0x0000 ;int13
      000040 82 00 00 00             84 	int 0x0000 ;int14
      000044 82 00 00 00             85 	int 0x0000 ;int15
      000048 82 00 00 00             86 	int 0x0000 ;int16
      00004C 82 00 00 00             87 	int 0x0000 ;int17
      000050 82 00 00 00             88 	int 0x0000 ;int18
      000054 82 00 00 00             89 	int 0x0000 ;int19
      000058 82 00 00 00             90 	int 0x0000 ;int20
      00005C 82 00 00 00             91 	int 0x0000 ;int21
      000060 82 00 00 00             92 	int 0x0000 ;int22
      000064 82v00u00u00             93 	int _delay_interrupt ;int23
      000068 82 00 00 00             94 	int 0x0000 ;int24
      00006C 82 00 00 00             95 	int 0x0000 ;int25
      000070 82 00 00 00             96 	int 0x0000 ;int26
      000074 82 00 00 00             97 	int 0x0000 ;int27
      000078 82 00 00 00             98 	int 0x0000 ;int28
      00007C 82 00 00 00             99 	int 0x0000 ;int29
                                    100 ;--------------------------------------------------------
                                    101 ; global & static initialisations
                                    102 ;--------------------------------------------------------
                                    103 	.area HOME
                                    104 	.area GSINIT
                                    105 	.area GSFINAL
                                    106 	.area GSINIT
      000000                        107 __sdcc_gs_init_startup:
      000000                        108 __sdcc_init_data:
                                    109 ; stm8_genXINIT() start
      000000 AEr00r00         [ 2]  110 	ldw x, #l_DATA
      000003 27 07            [ 1]  111 	jreq	00002$
      000005                        112 00001$:
      000005 72 4FuFFuFF      [ 1]  113 	clr (s_DATA - 1, x)
      000009 5A               [ 2]  114 	decw x
      00000A 26 F9            [ 1]  115 	jrne	00001$
      00000C                        116 00002$:
      00000C AEr00r00         [ 2]  117 	ldw	x, #l_INITIALIZER
      00000F 27 09            [ 1]  118 	jreq	00004$
      000011                        119 00003$:
      000011 D6uFFuFF         [ 1]  120 	ld	a, (s_INITIALIZER - 1, x)
      000014 D7uFFuFF         [ 1]  121 	ld	(s_INITIALIZED - 1, x), a
      000017 5A               [ 2]  122 	decw	x
      000018 26 F7            [ 1]  123 	jrne	00003$
      00001A                        124 00004$:
                                    125 ; stm8_genXINIT() end
                                    126 	.area GSFINAL
      000000 CCr00r80         [ 2]  127 	jp	__sdcc_program_startup
                                    128 ;--------------------------------------------------------
                                    129 ; Home
                                    130 ;--------------------------------------------------------
                                    131 	.area HOME
                                    132 	.area HOME
      000080                        133 __sdcc_program_startup:
      000080 CCr02r0C         [ 2]  134 	jp	_main
                                    135 ;	return from main will return to caller
                                    136 ;--------------------------------------------------------
                                    137 ; code
                                    138 ;--------------------------------------------------------
                                    139 	.area CODE
                                    140 ;	../lib/lib1/inc/stm8s_delay.h: 3: extern void delay_interrupt(void) __interrupt(23) //обработчик прерывания функции delay_ms таймера TIM4
                                    141 ;	-----------------------------------------
                                    142 ;	 function delay_interrupt
                                    143 ;	-----------------------------------------
      000000                        144 _delay_interrupt:
                                    145 ;	../lib/lib1/inc/stm8s_delay.h: 5: if(count)
      000000 CEu00u00         [ 2]  146 	ldw	x, _count+0
      000003 27 07            [ 1]  147 	jreq	00102$
                                    148 ;	../lib/lib1/inc/stm8s_delay.h: 6: count--;    //дикримент переменной count
      000005 CEu00u00         [ 2]  149 	ldw	x, _count+0
      000008 5A               [ 2]  150 	decw	x
      000009 CFu00u00         [ 2]  151 	ldw	_count+0, x
      00000C                        152 00102$:
                                    153 ;	../lib/lib1/inc/stm8s_delay.h: 7: TIM4->SR1   = 0x00; ////событие обновления не происходило
      00000C 35 00 53 44      [ 1]  154 	mov	0x5344+0, #0x00
      000010 80               [11]  155 	iret
                                    156 ;	../lib/lib1/inc/stm8s_delay.h: 9: void TIM4_cfg() //настройка таймера
                                    157 ;	-----------------------------------------
                                    158 ;	 function TIM4_cfg
                                    159 ;	-----------------------------------------
      000011                        160 _TIM4_cfg:
                                    161 ;	../lib/lib1/inc/stm8s_delay.h: 11: TIM4->SR1   = 0x1;   //событие обновления не происходило
      000011 35 01 53 44      [ 1]  162 	mov	0x5344+0, #0x01
                                    163 ;	../lib/lib1/inc/stm8s_delay.h: 12: TIM4->IER  |= 1;    // прерывания по обновлению включены
      000015 72 10 53 43      [ 1]  164 	bset	0x5343, #0
                                    165 ;	../lib/lib1/inc/stm8s_delay.h: 13: TIM4->PSCR |= 128; // установка предделителя 128
      000019 72 1E 53 47      [ 1]  166 	bset	0x5347, #7
                                    167 ;	../lib/lib1/inc/stm8s_delay.h: 14: TIM4->ARR  |= 124;    // значение автоперезагрузки
      00001D AE 53 48         [ 2]  168 	ldw	x, #0x5348
      000020 F6               [ 1]  169 	ld	a, (x)
      000021 AA 7C            [ 1]  170 	or	a, #0x7c
      000023 F7               [ 1]  171 	ld	(x), a
      000024 81               [ 4]  172 	ret
                                    173 ;	../lib/lib1/inc/stm8s_delay.h: 16: void delay_ms(uint16_t ms) //функция выдержки времени
                                    174 ;	-----------------------------------------
                                    175 ;	 function delay_ms
                                    176 ;	-----------------------------------------
      000025                        177 _delay_ms:
                                    178 ;	../lib/lib1/inc/stm8s_delay.h: 18: TIM4->CR1  = 0x0;
      000025 35 00 53 40      [ 1]  179 	mov	0x5340+0, #0x00
                                    180 ;	../lib/lib1/inc/stm8s_delay.h: 19: TIM4_cfg(); //вызов функции настройки таймера
      000029 CDr00r11         [ 4]  181 	call	_TIM4_cfg
                                    182 ;	../lib/lib1/inc/stm8s_delay.h: 20: count = ms;
      00002C 7B 04            [ 1]  183 	ld	a, (0x04, sp)
      00002E C7u00u01         [ 1]  184 	ld	_count+1, a
      000031 7B 03            [ 1]  185 	ld	a, (0x03, sp)
      000033 C7u00u00         [ 1]  186 	ld	_count+0, a
                                    187 ;	../lib/lib1/inc/stm8s_delay.h: 21: TIM4->CR1  = 0x1;
      000036 35 01 53 40      [ 1]  188 	mov	0x5340+0, #0x01
                                    189 ;	../lib/lib1/inc/stm8s_delay.h: 22: while(count);
      00003A                        190 00101$:
      00003A CEu00u00         [ 2]  191 	ldw	x, _count+0
      00003D 26 FB            [ 1]  192 	jrne	00101$
      00003F 81               [ 4]  193 	ret
                                    194 ;	./run_fire_but02.c: 3: uint8_t delay(uint8_t t)  //объявление статической функции часла типа long переменной t для реализации работы функции delay
                                    195 ;	-----------------------------------------
                                    196 ;	 function delay
                                    197 ;	-----------------------------------------
      000040                        198 _delay:
                                    199 ;	./run_fire_but02.c: 6: while(t--);
      000040 A6 20            [ 1]  200 	ld	a, #0x20
      000042                        201 00101$:
      000042 97               [ 1]  202 	ld	xl, a
      000043 4A               [ 1]  203 	dec	a
      000044 41               [ 1]  204 	exg	a, xl
      000045 4D               [ 1]  205 	tnz	a
      000046 41               [ 1]  206 	exg	a, xl
      000047 26 F9            [ 1]  207 	jrne	00101$
                                    208 ;	./run_fire_but02.c: 7: return t;
      000049 81               [ 4]  209 	ret
                                    210 ;	./run_fire_but02.c: 25: void Pin()  // настройка портов
                                    211 ;	-----------------------------------------
                                    212 ;	 function Pin
                                    213 ;	-----------------------------------------
      00004A                        214 _Pin:
                                    215 ;	./run_fire_but02.c: 27: GPIOC->DDR |= 0xf8;   //GPIO_PIN_3 | GPIO_PIN_4 | GPIO_PIN_5 | GPIO_PIN_6 | GPIO_PIN_7;	//направление данных порта out-0; input-1
      00004A AE 50 0C         [ 2]  216 	ldw	x, #0x500c
      00004D F6               [ 1]  217 	ld	a, (x)
      00004E AA F8            [ 1]  218 	or	a, #0xf8
      000050 F7               [ 1]  219 	ld	(x), a
                                    220 ;	./run_fire_but02.c: 28: GPIOC->CR1 |= 0xf8;   //GPIO_PIN_3 | GPIO_PIN_4 | GPIO_PIN_5 | GPIO_PIN_6 | GPIO_PIN_7;	//установка подтягивающего резистора open-drain=0; push-pull=1
      000051 AE 50 0D         [ 2]  221 	ldw	x, #0x500d
      000054 F6               [ 1]  222 	ld	a, (x)
      000055 AA F8            [ 1]  223 	or	a, #0xf8
      000057 F7               [ 1]  224 	ld	(x), a
                                    225 ;	./run_fire_but02.c: 29: GPIOC->ODR |= 0xf8;   //GPIO_PIN_3 | GPIO_PIN_4 | GPIO_PIN_5 | GPIO_PIN_6 | GPIO_PIN_7;	//установка значения бита 0/1
      000058 AE 50 0A         [ 2]  226 	ldw	x, #0x500a
      00005B F6               [ 1]  227 	ld	a, (x)
      00005C AA F8            [ 1]  228 	or	a, #0xf8
      00005E F7               [ 1]  229 	ld	(x), a
                                    230 ;	./run_fire_but02.c: 31: GPIOD->DDR |= 0x00;
      00005F AE 50 11         [ 2]  231 	ldw	x, #0x5011
      000062 F6               [ 1]  232 	ld	a, (x)
      000063 AE 50 11         [ 2]  233 	ldw	x, #0x5011
      000066 F7               [ 1]  234 	ld	(x), a
                                    235 ;	./run_fire_but02.c: 32: GPIOD->CR1 |= 0x30;
      000067 AE 50 12         [ 2]  236 	ldw	x, #0x5012
      00006A F6               [ 1]  237 	ld	a, (x)
      00006B AA 30            [ 1]  238 	or	a, #0x30
      00006D F7               [ 1]  239 	ld	(x), a
                                    240 ;	./run_fire_but02.c: 33: GPIOD->CR2 |= 0x00;
      00006E AE 50 13         [ 2]  241 	ldw	x, #0x5013
      000071 F6               [ 1]  242 	ld	a, (x)
      000072 AE 50 13         [ 2]  243 	ldw	x, #0x5013
      000075 F7               [ 1]  244 	ld	(x), a
      000076 81               [ 4]  245 	ret
                                    246 ;	./run_fire_but02.c: 36: void RunningUp()    //функция направление бегущиго огня с л->п
                                    247 ;	-----------------------------------------
                                    248 ;	 function RunningUp
                                    249 ;	-----------------------------------------
      000077                        250 _RunningUp:
      000077 52 02            [ 2]  251 	sub	sp, #2
                                    252 ;	./run_fire_but02.c: 38: GPIOC->ODR ^= 0x08 << n;
      000079 AE 50 0A         [ 2]  253 	ldw	x, #0x500a
      00007C F6               [ 1]  254 	ld	a, (x)
      00007D 6B 01            [ 1]  255 	ld	(0x01, sp), a
      00007F A6 08            [ 1]  256 	ld	a, #0x08
      000081 88               [ 1]  257 	push	a
      000082 C6u00u02         [ 1]  258 	ld	a, _n+0
      000085 27 05            [ 1]  259 	jreq	00110$
      000087                        260 00109$:
      000087 08 01            [ 1]  261 	sll	(1, sp)
      000089 4A               [ 1]  262 	dec	a
      00008A 26 FB            [ 1]  263 	jrne	00109$
      00008C                        264 00110$:
      00008C 84               [ 1]  265 	pop	a
      00008D 18 01            [ 1]  266 	xor	a, (0x01, sp)
      00008F AE 50 0A         [ 2]  267 	ldw	x, #0x500a
      000092 F7               [ 1]  268 	ld	(x), a
                                    269 ;	./run_fire_but02.c: 39: delay_ms(s);
      000093 CEu00u02         [ 2]  270 	ldw	x, _s+2
      000096 89               [ 2]  271 	pushw	x
      000097 CDr00r25         [ 4]  272 	call	_delay_ms
      00009A 5B 02            [ 2]  273 	addw	sp, #2
                                    274 ;	./run_fire_but02.c: 40: GPIOC->ODR |= 0x08 << n;
      00009C AE 50 0A         [ 2]  275 	ldw	x, #0x500a
      00009F F6               [ 1]  276 	ld	a, (x)
      0000A0 6B 02            [ 1]  277 	ld	(0x02, sp), a
      0000A2 A6 08            [ 1]  278 	ld	a, #0x08
      0000A4 88               [ 1]  279 	push	a
      0000A5 C6u00u02         [ 1]  280 	ld	a, _n+0
      0000A8 27 05            [ 1]  281 	jreq	00112$
      0000AA                        282 00111$:
      0000AA 08 01            [ 1]  283 	sll	(1, sp)
      0000AC 4A               [ 1]  284 	dec	a
      0000AD 26 FB            [ 1]  285 	jrne	00111$
      0000AF                        286 00112$:
      0000AF 84               [ 1]  287 	pop	a
      0000B0 1A 02            [ 1]  288 	or	a, (0x02, sp)
      0000B2 AE 50 0A         [ 2]  289 	ldw	x, #0x500a
      0000B5 F7               [ 1]  290 	ld	(x), a
                                    291 ;	./run_fire_but02.c: 42: n++;
      0000B6 C6u00u02         [ 1]  292 	ld	a, _n+0
      0000B9 4C               [ 1]  293 	inc	a
                                    294 ;	./run_fire_but02.c: 44: if ( n>=5 )
      0000BA C7u00u02         [ 1]  295 	ld	_n+0, a
      0000BD A1 05            [ 1]  296 	cp	a, #0x05
      0000BF 2F 04            [ 1]  297 	jrslt	00103$
                                    298 ;	./run_fire_but02.c: 46: n=0;
      0000C1 72 5Fu00u02      [ 1]  299 	clr	_n+0
      0000C5                        300 00103$:
      0000C5 5B 02            [ 2]  301 	addw	sp, #2
      0000C7 81               [ 4]  302 	ret
                                    303 ;	./run_fire_but02.c: 50: void RunningDn()    //функция направление бегущиго огня с п->л
                                    304 ;	-----------------------------------------
                                    305 ;	 function RunningDn
                                    306 ;	-----------------------------------------
      0000C8                        307 _RunningDn:
      0000C8 52 02            [ 2]  308 	sub	sp, #2
                                    309 ;	./run_fire_but02.c: 52: GPIOC->ODR ^= 0x80 >> n;
      0000CA AE 50 0A         [ 2]  310 	ldw	x, #0x500a
      0000CD F6               [ 1]  311 	ld	a, (x)
      0000CE 6B 01            [ 1]  312 	ld	(0x01, sp), a
      0000D0 A6 80            [ 1]  313 	ld	a, #0x80
      0000D2 88               [ 1]  314 	push	a
      0000D3 C6u00u02         [ 1]  315 	ld	a, _n+0
      0000D6 27 05            [ 1]  316 	jreq	00110$
      0000D8                        317 00109$:
      0000D8 04 01            [ 1]  318 	srl	(1, sp)
      0000DA 4A               [ 1]  319 	dec	a
      0000DB 26 FB            [ 1]  320 	jrne	00109$
      0000DD                        321 00110$:
      0000DD 84               [ 1]  322 	pop	a
      0000DE 18 01            [ 1]  323 	xor	a, (0x01, sp)
      0000E0 AE 50 0A         [ 2]  324 	ldw	x, #0x500a
      0000E3 F7               [ 1]  325 	ld	(x), a
                                    326 ;	./run_fire_but02.c: 53: delay_ms(s);
      0000E4 CEu00u02         [ 2]  327 	ldw	x, _s+2
      0000E7 89               [ 2]  328 	pushw	x
      0000E8 CDr00r25         [ 4]  329 	call	_delay_ms
      0000EB 5B 02            [ 2]  330 	addw	sp, #2
                                    331 ;	./run_fire_but02.c: 54: GPIOC->ODR |= 0x80 >> n;
      0000ED AE 50 0A         [ 2]  332 	ldw	x, #0x500a
      0000F0 F6               [ 1]  333 	ld	a, (x)
      0000F1 6B 02            [ 1]  334 	ld	(0x02, sp), a
      0000F3 A6 80            [ 1]  335 	ld	a, #0x80
      0000F5 88               [ 1]  336 	push	a
      0000F6 C6u00u02         [ 1]  337 	ld	a, _n+0
      0000F9 27 05            [ 1]  338 	jreq	00112$
      0000FB                        339 00111$:
      0000FB 04 01            [ 1]  340 	srl	(1, sp)
      0000FD 4A               [ 1]  341 	dec	a
      0000FE 26 FB            [ 1]  342 	jrne	00111$
      000100                        343 00112$:
      000100 84               [ 1]  344 	pop	a
      000101 1A 02            [ 1]  345 	or	a, (0x02, sp)
      000103 AE 50 0A         [ 2]  346 	ldw	x, #0x500a
      000106 F7               [ 1]  347 	ld	(x), a
                                    348 ;	./run_fire_but02.c: 56: n++;
      000107 C6u00u02         [ 1]  349 	ld	a, _n+0
      00010A 4C               [ 1]  350 	inc	a
                                    351 ;	./run_fire_but02.c: 58: if ( n>=5 )
      00010B C7u00u02         [ 1]  352 	ld	_n+0, a
      00010E A1 05            [ 1]  353 	cp	a, #0x05
      000110 2F 04            [ 1]  354 	jrslt	00103$
                                    355 ;	./run_fire_but02.c: 61: n=0;
      000112 72 5Fu00u02      [ 1]  356 	clr	_n+0
      000116                        357 00103$:
      000116 5B 02            [ 2]  358 	addw	sp, #2
      000118 81               [ 4]  359 	ret
                                    360 ;	./run_fire_but02.c: 65: void runLdUp()    //функция переполняющийся бегущий огонь п->л
                                    361 ;	-----------------------------------------
                                    362 ;	 function runLdUp
                                    363 ;	-----------------------------------------
      000119                        364 _runLdUp:
      000119 88               [ 1]  365 	push	a
                                    366 ;	./run_fire_but02.c: 67: GPIOC->ODR ^= 0x08 << n;;
      00011A AE 50 0A         [ 2]  367 	ldw	x, #0x500a
      00011D F6               [ 1]  368 	ld	a, (x)
      00011E 6B 01            [ 1]  369 	ld	(0x01, sp), a
      000120 A6 08            [ 1]  370 	ld	a, #0x08
      000122 88               [ 1]  371 	push	a
      000123 C6u00u02         [ 1]  372 	ld	a, _n+0
      000126 27 05            [ 1]  373 	jreq	00110$
      000128                        374 00109$:
      000128 08 01            [ 1]  375 	sll	(1, sp)
      00012A 4A               [ 1]  376 	dec	a
      00012B 26 FB            [ 1]  377 	jrne	00109$
      00012D                        378 00110$:
      00012D 84               [ 1]  379 	pop	a
      00012E 18 01            [ 1]  380 	xor	a, (0x01, sp)
      000130 AE 50 0A         [ 2]  381 	ldw	x, #0x500a
      000133 F7               [ 1]  382 	ld	(x), a
                                    383 ;	./run_fire_but02.c: 68: delay_ms(s);
      000134 CEu00u02         [ 2]  384 	ldw	x, _s+2
      000137 89               [ 2]  385 	pushw	x
      000138 CDr00r25         [ 4]  386 	call	_delay_ms
      00013B 5B 02            [ 2]  387 	addw	sp, #2
                                    388 ;	./run_fire_but02.c: 69: n++;
      00013D C6u00u02         [ 1]  389 	ld	a, _n+0
      000140 4C               [ 1]  390 	inc	a
                                    391 ;	./run_fire_but02.c: 70: if ( n >= 5 )
      000141 C7u00u02         [ 1]  392 	ld	_n+0, a
      000144 A1 05            [ 1]  393 	cp	a, #0x05
      000146 2F 04            [ 1]  394 	jrslt	00103$
                                    395 ;	./run_fire_but02.c: 72: n = 0;
      000148 72 5Fu00u02      [ 1]  396 	clr	_n+0
      00014C                        397 00103$:
      00014C 84               [ 1]  398 	pop	a
      00014D 81               [ 4]  399 	ret
                                    400 ;	./run_fire_but02.c: 76: void runLdDn()    //функция переполняющийся бегущий огонь п->л
                                    401 ;	-----------------------------------------
                                    402 ;	 function runLdDn
                                    403 ;	-----------------------------------------
      00014E                        404 _runLdDn:
      00014E 88               [ 1]  405 	push	a
                                    406 ;	./run_fire_but02.c: 78: GPIOC->ODR ^= 0x80 >> n;;
      00014F AE 50 0A         [ 2]  407 	ldw	x, #0x500a
      000152 F6               [ 1]  408 	ld	a, (x)
      000153 6B 01            [ 1]  409 	ld	(0x01, sp), a
      000155 A6 80            [ 1]  410 	ld	a, #0x80
      000157 88               [ 1]  411 	push	a
      000158 C6u00u02         [ 1]  412 	ld	a, _n+0
      00015B 27 05            [ 1]  413 	jreq	00110$
      00015D                        414 00109$:
      00015D 04 01            [ 1]  415 	srl	(1, sp)
      00015F 4A               [ 1]  416 	dec	a
      000160 26 FB            [ 1]  417 	jrne	00109$
      000162                        418 00110$:
      000162 84               [ 1]  419 	pop	a
      000163 18 01            [ 1]  420 	xor	a, (0x01, sp)
      000165 AE 50 0A         [ 2]  421 	ldw	x, #0x500a
      000168 F7               [ 1]  422 	ld	(x), a
                                    423 ;	./run_fire_but02.c: 79: delay_ms(s);
      000169 CEu00u02         [ 2]  424 	ldw	x, _s+2
      00016C 89               [ 2]  425 	pushw	x
      00016D CDr00r25         [ 4]  426 	call	_delay_ms
      000170 5B 02            [ 2]  427 	addw	sp, #2
                                    428 ;	./run_fire_but02.c: 80: n++;
      000172 C6u00u02         [ 1]  429 	ld	a, _n+0
      000175 4C               [ 1]  430 	inc	a
                                    431 ;	./run_fire_but02.c: 81: if (n>=5)
      000176 C7u00u02         [ 1]  432 	ld	_n+0, a
      000179 A1 05            [ 1]  433 	cp	a, #0x05
      00017B 2F 04            [ 1]  434 	jrslt	00103$
                                    435 ;	./run_fire_but02.c: 83: n = 0;
      00017D 72 5Fu00u02      [ 1]  436 	clr	_n+0
      000181                        437 00103$:
      000181 84               [ 1]  438 	pop	a
      000182 81               [ 4]  439 	ret
                                    440 ;	./run_fire_but02.c: 87: uint8_t buttonD4()
                                    441 ;	-----------------------------------------
                                    442 ;	 function buttonD4
                                    443 ;	-----------------------------------------
      000183                        444 _buttonD4:
      000183 52 04            [ 2]  445 	sub	sp, #4
                                    446 ;	./run_fire_but02.c: 90: if ((GPIOD->IDR & 0x10) ==0x00 && !bs && (delay(ms)-msb)>25) // фиксируем нажатие кнопки
      000185 AE 50 10         [ 2]  447 	ldw	x, #0x5010
      000188 F6               [ 1]  448 	ld	a, (x)
      000189 A5 10            [ 1]  449 	bcp	a, #0x10
      00018B 26 45            [ 1]  450 	jrne	00104$
      00018D 72 01u00u06 02   [ 2]  451 	btjf	_bs+0, #0, 00142$
      000192 20 3E            [ 2]  452 	jra	00104$
      000194                        453 00142$:
      000194 3Bu00u04         [ 1]  454 	push	_ms+0
      000197 CDr00r40         [ 4]  455 	call	_delay
      00019A 5B 01            [ 2]  456 	addw	sp, #1
      00019C 5F               [ 1]  457 	clrw	x
      00019D 97               [ 1]  458 	ld	xl, a
      00019E C6u00u05         [ 1]  459 	ld	a, _msb+0
      0001A1 6B 02            [ 1]  460 	ld	(0x02, sp), a
      0001A3 0F 01            [ 1]  461 	clr	(0x01, sp)
      0001A5 72 F0 01         [ 2]  462 	subw	x, (0x01, sp)
      0001A8 A3 00 19         [ 2]  463 	cpw	x, #0x0019
      0001AB 2D 25            [ 1]  464 	jrsle	00104$
                                    465 ;	./run_fire_but02.c: 92: bs=1;
      0001AD 35 01u00u06      [ 1]  466 	mov	_bs+0, #0x01
                                    467 ;	./run_fire_but02.c: 93: msb=ms;
      0001B1 C6u00u04         [ 1]  468 	ld	a, _ms+0
      0001B4 C7u00u05         [ 1]  469 	ld	_msb+0, a
                                    470 ;	./run_fire_but02.c: 94: GPIOC->ODR |= 0xf8;
      0001B7 AE 50 0A         [ 2]  471 	ldw	x, #0x500a
      0001BA F6               [ 1]  472 	ld	a, (x)
      0001BB AA F8            [ 1]  473 	or	a, #0xf8
      0001BD F7               [ 1]  474 	ld	(x), a
                                    475 ;	./run_fire_but02.c: 95: n=0;
      0001BE 72 5Fu00u02      [ 1]  476 	clr	_n+0
                                    477 ;	./run_fire_but02.c: 96: b++;
      0001C2 CEu00u07         [ 2]  478 	ldw	x, _b+0
      0001C5 5C               [ 2]  479 	incw	x
                                    480 ;	./run_fire_but02.c: 97: if ( b>=5 )
      0001C6 CFu00u07         [ 2]  481 	ldw	_b+0, x
      0001C9 A3 00 05         [ 2]  482 	cpw	x, #0x0005
      0001CC 25 04            [ 1]  483 	jrc	00104$
                                    484 ;	./run_fire_but02.c: 99: b=0;
      0001CE 5F               [ 1]  485 	clrw	x
      0001CF CFu00u07         [ 2]  486 	ldw	_b+0, x
      0001D2                        487 00104$:
                                    488 ;	./run_fire_but02.c: 103: if ((GPIOD->IDR & 0x10) ==0x10 && bs && (delay(ms)-msb)>25) // фиксируем отпускание  нажатие кнопки
      0001D2 AE 50 10         [ 2]  489 	ldw	x, #0x5010
      0001D5 F6               [ 1]  490 	ld	a, (x)
      0001D6 A4 10            [ 1]  491 	and	a, #0x10
      0001D8 A1 10            [ 1]  492 	cp	a, #0x10
      0001DA 26 2A            [ 1]  493 	jrne	00108$
      0001DC 72 00u00u06 02   [ 2]  494 	btjt	_bs+0, #0, 00148$
      0001E1 20 23            [ 2]  495 	jra	00108$
      0001E3                        496 00148$:
      0001E3 3Bu00u04         [ 1]  497 	push	_ms+0
      0001E6 CDr00r40         [ 4]  498 	call	_delay
      0001E9 5B 01            [ 2]  499 	addw	sp, #1
      0001EB 5F               [ 1]  500 	clrw	x
      0001EC 97               [ 1]  501 	ld	xl, a
      0001ED C6u00u05         [ 1]  502 	ld	a, _msb+0
      0001F0 6B 04            [ 1]  503 	ld	(0x04, sp), a
      0001F2 0F 03            [ 1]  504 	clr	(0x03, sp)
      0001F4 72 F0 03         [ 2]  505 	subw	x, (0x03, sp)
      0001F7 A3 00 19         [ 2]  506 	cpw	x, #0x0019
      0001FA 2D 0A            [ 1]  507 	jrsle	00108$
                                    508 ;	./run_fire_but02.c: 105: bs=0;
      0001FC 72 5Fu00u06      [ 1]  509 	clr	_bs+0
                                    510 ;	./run_fire_but02.c: 106: msb=ms;
      000200 C6u00u04         [ 1]  511 	ld	a, _ms+0
      000203 C7u00u05         [ 1]  512 	ld	_msb+0, a
      000206                        513 00108$:
                                    514 ;	./run_fire_but02.c: 109: return b;
      000206 C6u00u08         [ 1]  515 	ld	a, _b+1
      000209 5B 04            [ 2]  516 	addw	sp, #4
      00020B 81               [ 4]  517 	ret
                                    518 ;	./run_fire_but02.c: 135: int main( void )    //основная программа
                                    519 ;	-----------------------------------------
                                    520 ;	 function main
                                    521 ;	-----------------------------------------
      00020C                        522 _main:
                                    523 ;	./run_fire_but02.c: 137: Pin();
      00020C CDr00r4A         [ 4]  524 	call	_Pin
                                    525 ;	./run_fire_but02.c: 138: CLK->CKDIVR |= 0; // коэффициент деления частоты HSI-генератора (16MHz)
      00020F AE 50 C6         [ 2]  526 	ldw	x, #0x50c6
      000212 F6               [ 1]  527 	ld	a, (x)
      000213 AE 50 C6         [ 2]  528 	ldw	x, #0x50c6
      000216 F7               [ 1]  529 	ld	(x), a
                                    530 ;	./run_fire_but02.c: 139: rim();
      000217 9A               [ 1]  531 	rim 
                                    532 ;	./run_fire_but02.c: 141: while(1)    //бесконечный цикл
      000218                        533 00108$:
                                    534 ;	./run_fire_but02.c: 144: buttonD4();
      000218 CDr01r83         [ 4]  535 	call	_buttonD4
                                    536 ;	./run_fire_but02.c: 146: switch(b)
      00021B CEu00u07         [ 2]  537 	ldw	x, _b+0
      00021E A3 00 03         [ 2]  538 	cpw	x, #0x0003
      000221 22 24            [ 1]  539 	jrugt	00105$
      000223 CEu00u07         [ 2]  540 	ldw	x, _b+0
      000226 58               [ 2]  541 	sllw	x
      000227 DEu02u2B         [ 2]  542 	ldw	x, (#00121$, x)
      00022A FC               [ 2]  543 	jp	(x)
      00022B                        544 00121$:
      00022Br02r33                  545 	.dw	#00101$
      00022Dr02r38                  546 	.dw	#00102$
      00022Fr02r3D                  547 	.dw	#00103$
      000231r02r42                  548 	.dw	#00104$
                                    549 ;	./run_fire_but02.c: 148: case 0:
      000233                        550 00101$:
                                    551 ;	./run_fire_but02.c: 149: RunningUp();
      000233 CDr00r77         [ 4]  552 	call	_RunningUp
                                    553 ;	./run_fire_but02.c: 150: break;
      000236 20 E0            [ 2]  554 	jra	00108$
                                    555 ;	./run_fire_but02.c: 151: case 1:
      000238                        556 00102$:
                                    557 ;	./run_fire_but02.c: 152: RunningDn();
      000238 CDr00rC8         [ 4]  558 	call	_RunningDn
                                    559 ;	./run_fire_but02.c: 153: break;
      00023B 20 DB            [ 2]  560 	jra	00108$
                                    561 ;	./run_fire_but02.c: 154: case 2:
      00023D                        562 00103$:
                                    563 ;	./run_fire_but02.c: 155: runLdUp();
      00023D CDr01r19         [ 4]  564 	call	_runLdUp
                                    565 ;	./run_fire_but02.c: 156: break;
      000240 20 D6            [ 2]  566 	jra	00108$
                                    567 ;	./run_fire_but02.c: 157: case 3:
      000242                        568 00104$:
                                    569 ;	./run_fire_but02.c: 158: runLdDn();
      000242 CDr01r4E         [ 4]  570 	call	_runLdDn
                                    571 ;	./run_fire_but02.c: 159: break;
      000245 20 D1            [ 2]  572 	jra	00108$
                                    573 ;	./run_fire_but02.c: 160: default:
      000247                        574 00105$:
                                    575 ;	./run_fire_but02.c: 161: GPIOC->ODR |= 0xf8;
      000247 AE 50 0A         [ 2]  576 	ldw	x, #0x500a
      00024A F6               [ 1]  577 	ld	a, (x)
      00024B AA F8            [ 1]  578 	or	a, #0xf8
      00024D F7               [ 1]  579 	ld	(x), a
                                    580 ;	./run_fire_but02.c: 163: }
      00024E 20 C8            [ 2]  581 	jra	00108$
      000250 81               [ 4]  582 	ret
                                    583 	.area CODE
                                    584 	.area INITIALIZER
      000000                        585 __xinit__s:
      000000 00 00 27 10            586 	.byte #0x00,#0x00,#0x27,#0x10	; 10000
      000004                        587 __xinit__ms:
      000004 00                     588 	.db #0x00	; 0
      000005                        589 __xinit__msb:
      000005 00                     590 	.db #0x00	; 0
      000006                        591 __xinit__bs:
      000006 00                     592 	.db #0x00	;  0
      000007                        593 __xinit__b:
      000007 03 E8                  594 	.dw #0x03E8
                                    595 	.area CABS (ABS)
