                                      1 ;--------------------------------------------------------
                                      2 ; File Created by SDCC : free open source ANSI-C Compiler
                                      3 ; Version 3.5.0 #9253 (Mar 24 2016) (Linux)
                                      4 ; This file was generated Sun Mar 25 01:16:34 2018
                                      5 ;--------------------------------------------------------
                                      6 	.module button_leds
                                      7 	.optsdcc -mstm8
                                      8 	
                                      9 ;--------------------------------------------------------
                                     10 ; Public variables in this module
                                     11 ;--------------------------------------------------------
                                     12 	.globl _main
                                     13 	.globl _running
                                     14 	.globl _PIN
                                     15 	.globl _delay
                                     16 	.globl _bs
                                     17 	.globl _msb
                                     18 	.globl _ms
                                     19 	.globl _n
                                     20 	.globl _i
                                     21 ;--------------------------------------------------------
                                     22 ; ram data
                                     23 ;--------------------------------------------------------
                                     24 	.area DATA
      000000                         25 _i::
      000000                         26 	.ds 4
      000004                         27 _n::
      000004                         28 	.ds 1
                                     29 ;--------------------------------------------------------
                                     30 ; ram data
                                     31 ;--------------------------------------------------------
                                     32 	.area INITIALIZED
      000000                         33 _ms::
      000000                         34 	.ds 4
      000004                         35 _msb::
      000004                         36 	.ds 4
      000008                         37 _bs::
      000008                         38 	.ds 1
                                     39 ;--------------------------------------------------------
                                     40 ; Stack segment in internal ram 
                                     41 ;--------------------------------------------------------
                                     42 	.area	SSEG
      000000                         43 __start__stack:
      000000                         44 	.ds	1
                                     45 
                                     46 ;--------------------------------------------------------
                                     47 ; absolute external ram data
                                     48 ;--------------------------------------------------------
                                     49 	.area DABS (ABS)
                                     50 ;--------------------------------------------------------
                                     51 ; interrupt vector 
                                     52 ;--------------------------------------------------------
                                     53 	.area HOME
      000000                         54 __interrupt_vect:
      000000 82v00u00u00             55 	int s_GSINIT ;reset
      000004 82 00 00 00             56 	int 0x0000 ;trap
      000008 82 00 00 00             57 	int 0x0000 ;int0
      00000C 82 00 00 00             58 	int 0x0000 ;int1
      000010 82 00 00 00             59 	int 0x0000 ;int2
      000014 82 00 00 00             60 	int 0x0000 ;int3
      000018 82 00 00 00             61 	int 0x0000 ;int4
      00001C 82 00 00 00             62 	int 0x0000 ;int5
      000020 82 00 00 00             63 	int 0x0000 ;int6
      000024 82 00 00 00             64 	int 0x0000 ;int7
      000028 82 00 00 00             65 	int 0x0000 ;int8
      00002C 82 00 00 00             66 	int 0x0000 ;int9
      000030 82 00 00 00             67 	int 0x0000 ;int10
      000034 82 00 00 00             68 	int 0x0000 ;int11
      000038 82 00 00 00             69 	int 0x0000 ;int12
      00003C 82 00 00 00             70 	int 0x0000 ;int13
      000040 82 00 00 00             71 	int 0x0000 ;int14
      000044 82 00 00 00             72 	int 0x0000 ;int15
      000048 82 00 00 00             73 	int 0x0000 ;int16
      00004C 82 00 00 00             74 	int 0x0000 ;int17
      000050 82 00 00 00             75 	int 0x0000 ;int18
      000054 82 00 00 00             76 	int 0x0000 ;int19
      000058 82 00 00 00             77 	int 0x0000 ;int20
      00005C 82 00 00 00             78 	int 0x0000 ;int21
      000060 82 00 00 00             79 	int 0x0000 ;int22
      000064 82 00 00 00             80 	int 0x0000 ;int23
      000068 82 00 00 00             81 	int 0x0000 ;int24
      00006C 82 00 00 00             82 	int 0x0000 ;int25
      000070 82 00 00 00             83 	int 0x0000 ;int26
      000074 82 00 00 00             84 	int 0x0000 ;int27
      000078 82 00 00 00             85 	int 0x0000 ;int28
      00007C 82 00 00 00             86 	int 0x0000 ;int29
                                     87 ;--------------------------------------------------------
                                     88 ; global & static initialisations
                                     89 ;--------------------------------------------------------
                                     90 	.area HOME
                                     91 	.area GSINIT
                                     92 	.area GSFINAL
                                     93 	.area GSINIT
      000000                         94 __sdcc_gs_init_startup:
      000000                         95 __sdcc_init_data:
                                     96 ; stm8_genXINIT() start
      000000 AEr00r00         [ 2]   97 	ldw x, #l_DATA
      000003 27 07            [ 1]   98 	jreq	00002$
      000005                         99 00001$:
      000005 72 4FuFFuFF      [ 1]  100 	clr (s_DATA - 1, x)
      000009 5A               [ 2]  101 	decw x
      00000A 26 F9            [ 1]  102 	jrne	00001$
      00000C                        103 00002$:
      00000C AEr00r00         [ 2]  104 	ldw	x, #l_INITIALIZER
      00000F 27 09            [ 1]  105 	jreq	00004$
      000011                        106 00003$:
      000011 D6uFFuFF         [ 1]  107 	ld	a, (s_INITIALIZER - 1, x)
      000014 D7uFFuFF         [ 1]  108 	ld	(s_INITIALIZED - 1, x), a
      000017 5A               [ 2]  109 	decw	x
      000018 26 F7            [ 1]  110 	jrne	00003$
      00001A                        111 00004$:
                                    112 ; stm8_genXINIT() end
                                    113 	.area GSFINAL
      000000 CCr00r80         [ 2]  114 	jp	__sdcc_program_startup
                                    115 ;--------------------------------------------------------
                                    116 ; Home
                                    117 ;--------------------------------------------------------
                                    118 	.area HOME
                                    119 	.area HOME
      000080                        120 __sdcc_program_startup:
      000080 CCr02r08         [ 2]  121 	jp	_main
                                    122 ;	return from main will return to caller
                                    123 ;--------------------------------------------------------
                                    124 ; code
                                    125 ;--------------------------------------------------------
                                    126 	.area CODE
                                    127 ;	./button_leds.c: 5: uint32_t delay(uint32_t t)  //объявление статической функции часла типа long переменной t для реализации работы функции delay
                                    128 ;	-----------------------------------------
                                    129 ;	 function delay
                                    130 ;	-----------------------------------------
      000000                        131 _delay:
      000000 52 04            [ 2]  132 	sub	sp, #4
                                    133 ;	./button_leds.c: 8: while(t--);
      000002 90 AE 01 F4      [ 2]  134 	ldw	y, #0x01f4
      000006 5F               [ 1]  135 	clrw	x
      000007                        136 00101$:
      000007 17 03            [ 2]  137 	ldw	(0x03, sp), y
      000009 1F 01            [ 2]  138 	ldw	(0x01, sp), x
      00000B 72 A2 00 01      [ 2]  139 	subw	y, #0x0001
      00000F 9F               [ 1]  140 	ld	a, xl
      000010 A2 00            [ 1]  141 	sbc	a, #0x00
      000012 02               [ 1]  142 	rlwa	x
      000013 A2 00            [ 1]  143 	sbc	a, #0x00
      000015 95               [ 1]  144 	ld	xh, a
      000016 0D 04            [ 1]  145 	tnz	(0x04, sp)
      000018 26 ED            [ 1]  146 	jrne	00101$
      00001A 0D 03            [ 1]  147 	tnz	(0x03, sp)
      00001C 26 E9            [ 1]  148 	jrne	00101$
      00001E 0D 02            [ 1]  149 	tnz	(0x02, sp)
      000020 26 E5            [ 1]  150 	jrne	00101$
      000022 0D 01            [ 1]  151 	tnz	(0x01, sp)
      000024 26 E1            [ 1]  152 	jrne	00101$
                                    153 ;	./button_leds.c: 9: return t;
      000026 51               [ 1]  154 	exgw	x, y
      000027 5B 04            [ 2]  155 	addw	sp, #4
      000029 81               [ 4]  156 	ret
                                    157 ;	./button_leds.c: 27: void PIN()
                                    158 ;	-----------------------------------------
                                    159 ;	 function PIN
                                    160 ;	-----------------------------------------
      00002A                        161 _PIN:
                                    162 ;	./button_leds.c: 29: GPIOC->DDR |= 0xf8;   	//направление данных порта out-0; input-1
      00002A AE 50 0C         [ 2]  163 	ldw	x, #0x500c
      00002D F6               [ 1]  164 	ld	a, (x)
      00002E AA F8            [ 1]  165 	or	a, #0xf8
      000030 F7               [ 1]  166 	ld	(x), a
                                    167 ;	./button_leds.c: 30: GPIOC->CR1 |= 0xf8;   	//установка подтягивающего резистора open-drain=0; push-pull=1
      000031 AE 50 0D         [ 2]  168 	ldw	x, #0x500d
      000034 F6               [ 1]  169 	ld	a, (x)
      000035 AA F8            [ 1]  170 	or	a, #0xf8
      000037 F7               [ 1]  171 	ld	(x), a
                                    172 ;	./button_leds.c: 31: GPIOC->ODR |= 0xf8;   	//установка значения бита 0/1
      000038 AE 50 0A         [ 2]  173 	ldw	x, #0x500a
      00003B F6               [ 1]  174 	ld	a, (x)
      00003C AA F8            [ 1]  175 	or	a, #0xf8
      00003E F7               [ 1]  176 	ld	(x), a
                                    177 ;	./button_leds.c: 33: GPIOD->DDR |= 0x00;
      00003F AE 50 11         [ 2]  178 	ldw	x, #0x5011
      000042 F6               [ 1]  179 	ld	a, (x)
      000043 AE 50 11         [ 2]  180 	ldw	x, #0x5011
      000046 F7               [ 1]  181 	ld	(x), a
                                    182 ;	./button_leds.c: 34: GPIOD->CR1 |= 0x10;
      000047 AE 50 12         [ 2]  183 	ldw	x, #0x5012
      00004A F6               [ 1]  184 	ld	a, (x)
      00004B AA 10            [ 1]  185 	or	a, #0x10
      00004D F7               [ 1]  186 	ld	(x), a
                                    187 ;	./button_leds.c: 35: GPIOD->CR2 |= 0x00;
      00004E AE 50 13         [ 2]  188 	ldw	x, #0x5013
      000051 F6               [ 1]  189 	ld	a, (x)
      000052 AE 50 13         [ 2]  190 	ldw	x, #0x5013
      000055 F7               [ 1]  191 	ld	(x), a
      000056 81               [ 4]  192 	ret
                                    193 ;	./button_leds.c: 40: void running()
                                    194 ;	-----------------------------------------
                                    195 ;	 function running
                                    196 ;	-----------------------------------------
      000057                        197 _running:
      000057 52 0C            [ 2]  198 	sub	sp, #12
                                    199 ;	./button_leds.c: 42: if ((GPIOD->IDR & 0x10) ==0x00 && !bs && (delay(ms)-msb)>50) // проверяем нажатие кнопки
      000059 AE 50 10         [ 2]  200 	ldw	x, #0x5010
      00005C F6               [ 1]  201 	ld	a, (x)
      00005D A5 10            [ 1]  202 	bcp	a, #0x10
      00005F 27 03            [ 1]  203 	jreq	00171$
      000061 CCr01r2E         [ 2]  204 	jp	00105$
      000064                        205 00171$:
      000064 72 01u00u08 03   [ 2]  206 	btjf	_bs+0, #0, 00172$
      000069 CCr01r2E         [ 2]  207 	jp	00105$
      00006C                        208 00172$:
      00006C 3Bu00u03         [ 1]  209 	push	_ms+3
      00006F 3Bu00u02         [ 1]  210 	push	_ms+2
      000072 3Bu00u01         [ 1]  211 	push	_ms+1
      000075 3Bu00u00         [ 1]  212 	push	_ms+0
      000078 CDr00r00         [ 4]  213 	call	_delay
      00007B 5B 04            [ 2]  214 	addw	sp, #4
      00007D 51               [ 1]  215 	exgw	x, y
      00007E 72 B2u00u06      [ 2]  216 	subw	y, _msb+2
      000082 17 09            [ 2]  217 	ldw	(0x09, sp), y
      000084 9F               [ 1]  218 	ld	a, xl
      000085 C2u00u05         [ 1]  219 	sbc	a, _msb+1
      000088 6B 08            [ 1]  220 	ld	(0x08, sp), a
      00008A 9E               [ 1]  221 	ld	a, xh
      00008B C2u00u04         [ 1]  222 	sbc	a, _msb+0
      00008E 6B 07            [ 1]  223 	ld	(0x07, sp), a
      000090 AE 00 32         [ 2]  224 	ldw	x, #0x0032
      000093 13 09            [ 2]  225 	cpw	x, (0x09, sp)
      000095 4F               [ 1]  226 	clr	a
      000096 12 08            [ 1]  227 	sbc	a, (0x08, sp)
      000098 4F               [ 1]  228 	clr	a
      000099 12 07            [ 1]  229 	sbc	a, (0x07, sp)
      00009B 25 03            [ 1]  230 	jrc	00173$
      00009D CCr01r2E         [ 2]  231 	jp	00105$
      0000A0                        232 00173$:
                                    233 ;	./button_leds.c: 44: bs=1;
      0000A0 35 01u00u08      [ 1]  234 	mov	_bs+0, #0x01
                                    235 ;	./button_leds.c: 45: msb=ms;
      0000A4 90 CEu00u02      [ 2]  236 	ldw	y, _ms+2
      0000A8 CEu00u00         [ 2]  237 	ldw	x, _ms+0
      0000AB 90 CFu00u06      [ 2]  238 	ldw	_msb+2, y
      0000AF CFu00u04         [ 2]  239 	ldw	_msb+0, x
                                    240 ;	./button_leds.c: 47: GPIOC->ODR ^= 0x08 << n;
      0000B2 AE 50 0A         [ 2]  241 	ldw	x, #0x500a
      0000B5 F6               [ 1]  242 	ld	a, (x)
      0000B6 6B 06            [ 1]  243 	ld	(0x06, sp), a
      0000B8 A6 08            [ 1]  244 	ld	a, #0x08
      0000BA 88               [ 1]  245 	push	a
      0000BB C6u00u04         [ 1]  246 	ld	a, _n+0
      0000BE 27 05            [ 1]  247 	jreq	00175$
      0000C0                        248 00174$:
      0000C0 08 01            [ 1]  249 	sll	(1, sp)
      0000C2 4A               [ 1]  250 	dec	a
      0000C3 26 FB            [ 1]  251 	jrne	00174$
      0000C5                        252 00175$:
      0000C5 84               [ 1]  253 	pop	a
      0000C6 18 06            [ 1]  254 	xor	a, (0x06, sp)
      0000C8 AE 50 0A         [ 2]  255 	ldw	x, #0x500a
      0000CB F7               [ 1]  256 	ld	(x), a
                                    257 ;	./button_leds.c: 49: for (i=0;i<=5000;i++);{}
      0000CC AE 13 89         [ 2]  258 	ldw	x, #0x1389
      0000CF CFu00u02         [ 2]  259 	ldw	_i+2, x
      0000D2 5F               [ 1]  260 	clrw	x
      0000D3 CFu00u00         [ 2]  261 	ldw	_i+0, x
      0000D6                        262 00117$:
      0000D6 90 CEu00u02      [ 2]  263 	ldw	y, _i+2
      0000DA 72 A2 00 01      [ 2]  264 	subw	y, #0x0001
      0000DE C6u00u01         [ 1]  265 	ld	a, _i+1
      0000E1 A2 00            [ 1]  266 	sbc	a, #0x00
      0000E3 97               [ 1]  267 	ld	xl, a
      0000E4 C6u00u00         [ 1]  268 	ld	a, _i+0
      0000E7 A2 00            [ 1]  269 	sbc	a, #0x00
      0000E9 95               [ 1]  270 	ld	xh, a
      0000EA 90 CFu00u02      [ 2]  271 	ldw	_i+2, y
      0000EE CFu00u00         [ 2]  272 	ldw	_i+0, x
      0000F1 CEu00u02         [ 2]  273 	ldw	x, _i+2
      0000F4 26 E0            [ 1]  274 	jrne	00117$
      0000F6 CEu00u00         [ 2]  275 	ldw	x, _i+0
      0000F9 26 DB            [ 1]  276 	jrne	00117$
      0000FB AE 13 89         [ 2]  277 	ldw	x, #0x1389
      0000FE CFu00u02         [ 2]  278 	ldw	_i+2, x
      000101 5F               [ 1]  279 	clrw	x
      000102 CFu00u00         [ 2]  280 	ldw	_i+0, x
                                    281 ;	./button_leds.c: 52: GPIOC->ODR |= 0x08 << n;
      000105 AE 50 0A         [ 2]  282 	ldw	x, #0x500a
      000108 F6               [ 1]  283 	ld	a, (x)
      000109 6B 05            [ 1]  284 	ld	(0x05, sp), a
      00010B A6 08            [ 1]  285 	ld	a, #0x08
      00010D 88               [ 1]  286 	push	a
      00010E C6u00u04         [ 1]  287 	ld	a, _n+0
      000111 27 05            [ 1]  288 	jreq	00179$
      000113                        289 00178$:
      000113 08 01            [ 1]  290 	sll	(1, sp)
      000115 4A               [ 1]  291 	dec	a
      000116 26 FB            [ 1]  292 	jrne	00178$
      000118                        293 00179$:
      000118 84               [ 1]  294 	pop	a
      000119 1A 05            [ 1]  295 	or	a, (0x05, sp)
      00011B AE 50 0A         [ 2]  296 	ldw	x, #0x500a
      00011E F7               [ 1]  297 	ld	(x), a
                                    298 ;	./button_leds.c: 54: n++;
      00011F C6u00u04         [ 1]  299 	ld	a, _n+0
      000122 4C               [ 1]  300 	inc	a
                                    301 ;	./button_leds.c: 55: if ( n>=5 )
      000123 C7u00u04         [ 1]  302 	ld	_n+0, a
      000126 A1 05            [ 1]  303 	cp	a, #0x05
      000128 2F 04            [ 1]  304 	jrslt	00105$
                                    305 ;	./button_leds.c: 57: n=0;
      00012A 72 5Fu00u04      [ 1]  306 	clr	_n+0
      00012E                        307 00105$:
                                    308 ;	./button_leds.c: 62: if ((GPIOD->IDR & 0x10) ==0x10 && bs && (delay(ms)-msb)>50) // фиксируем отпускание  нажатие кнопки
      00012E AE 50 10         [ 2]  309 	ldw	x, #0x5010
      000131 F6               [ 1]  310 	ld	a, (x)
      000132 A4 10            [ 1]  311 	and	a, #0x10
      000134 A1 10            [ 1]  312 	cp	a, #0x10
      000136 27 03            [ 1]  313 	jreq	00183$
      000138 CCr02r05         [ 2]  314 	jp	00121$
      00013B                        315 00183$:
      00013B 72 00u00u08 03   [ 2]  316 	btjt	_bs+0, #0, 00184$
      000140 CCr02r05         [ 2]  317 	jp	00121$
      000143                        318 00184$:
      000143 3Bu00u03         [ 1]  319 	push	_ms+3
      000146 3Bu00u02         [ 1]  320 	push	_ms+2
      000149 3Bu00u01         [ 1]  321 	push	_ms+1
      00014C 3Bu00u00         [ 1]  322 	push	_ms+0
      00014F CDr00r00         [ 4]  323 	call	_delay
      000152 5B 04            [ 2]  324 	addw	sp, #4
      000154 51               [ 1]  325 	exgw	x, y
      000155 72 B2u00u06      [ 2]  326 	subw	y, _msb+2
      000159 17 03            [ 2]  327 	ldw	(0x03, sp), y
      00015B 9F               [ 1]  328 	ld	a, xl
      00015C C2u00u05         [ 1]  329 	sbc	a, _msb+1
      00015F 6B 02            [ 1]  330 	ld	(0x02, sp), a
      000161 9E               [ 1]  331 	ld	a, xh
      000162 C2u00u04         [ 1]  332 	sbc	a, _msb+0
      000165 6B 01            [ 1]  333 	ld	(0x01, sp), a
      000167 AE 00 32         [ 2]  334 	ldw	x, #0x0032
      00016A 13 03            [ 2]  335 	cpw	x, (0x03, sp)
      00016C 4F               [ 1]  336 	clr	a
      00016D 12 02            [ 1]  337 	sbc	a, (0x02, sp)
      00016F 4F               [ 1]  338 	clr	a
      000170 12 01            [ 1]  339 	sbc	a, (0x01, sp)
      000172 25 03            [ 1]  340 	jrc	00185$
      000174 CCr02r05         [ 2]  341 	jp	00121$
      000177                        342 00185$:
                                    343 ;	./button_leds.c: 64: bs=0;
      000177 72 5Fu00u08      [ 1]  344 	clr	_bs+0
                                    345 ;	./button_leds.c: 65: msb=ms;
      00017B 90 CEu00u02      [ 2]  346 	ldw	y, _ms+2
      00017F CEu00u00         [ 2]  347 	ldw	x, _ms+0
      000182 90 CFu00u06      [ 2]  348 	ldw	_msb+2, y
      000186 CFu00u04         [ 2]  349 	ldw	_msb+0, x
                                    350 ;	./button_leds.c: 67: GPIOC->ODR ^= 0x80 >> n;
      000189 AE 50 0A         [ 2]  351 	ldw	x, #0x500a
      00018C F6               [ 1]  352 	ld	a, (x)
      00018D 6B 0C            [ 1]  353 	ld	(0x0c, sp), a
      00018F A6 80            [ 1]  354 	ld	a, #0x80
      000191 88               [ 1]  355 	push	a
      000192 C6u00u04         [ 1]  356 	ld	a, _n+0
      000195 27 05            [ 1]  357 	jreq	00187$
      000197                        358 00186$:
      000197 04 01            [ 1]  359 	srl	(1, sp)
      000199 4A               [ 1]  360 	dec	a
      00019A 26 FB            [ 1]  361 	jrne	00186$
      00019C                        362 00187$:
      00019C 84               [ 1]  363 	pop	a
      00019D 18 0C            [ 1]  364 	xor	a, (0x0c, sp)
      00019F AE 50 0A         [ 2]  365 	ldw	x, #0x500a
      0001A2 F7               [ 1]  366 	ld	(x), a
                                    367 ;	./button_leds.c: 69: for (i=0;i<=5000;i++);{}
      0001A3 AE 13 89         [ 2]  368 	ldw	x, #0x1389
      0001A6 CFu00u02         [ 2]  369 	ldw	_i+2, x
      0001A9 5F               [ 1]  370 	clrw	x
      0001AA CFu00u00         [ 2]  371 	ldw	_i+0, x
      0001AD                        372 00120$:
      0001AD 90 CEu00u02      [ 2]  373 	ldw	y, _i+2
      0001B1 72 A2 00 01      [ 2]  374 	subw	y, #0x0001
      0001B5 C6u00u01         [ 1]  375 	ld	a, _i+1
      0001B8 A2 00            [ 1]  376 	sbc	a, #0x00
      0001BA 97               [ 1]  377 	ld	xl, a
      0001BB C6u00u00         [ 1]  378 	ld	a, _i+0
      0001BE A2 00            [ 1]  379 	sbc	a, #0x00
      0001C0 95               [ 1]  380 	ld	xh, a
      0001C1 90 CFu00u02      [ 2]  381 	ldw	_i+2, y
      0001C5 CFu00u00         [ 2]  382 	ldw	_i+0, x
      0001C8 CEu00u02         [ 2]  383 	ldw	x, _i+2
      0001CB 26 E0            [ 1]  384 	jrne	00120$
      0001CD CEu00u00         [ 2]  385 	ldw	x, _i+0
      0001D0 26 DB            [ 1]  386 	jrne	00120$
      0001D2 AE 13 89         [ 2]  387 	ldw	x, #0x1389
      0001D5 CFu00u02         [ 2]  388 	ldw	_i+2, x
      0001D8 5F               [ 1]  389 	clrw	x
      0001D9 CFu00u00         [ 2]  390 	ldw	_i+0, x
                                    391 ;	./button_leds.c: 71: GPIOC->ODR |= 0x80 >> n;
      0001DC AE 50 0A         [ 2]  392 	ldw	x, #0x500a
      0001DF F6               [ 1]  393 	ld	a, (x)
      0001E0 95               [ 1]  394 	ld	xh, a
      0001E1 A6 80            [ 1]  395 	ld	a, #0x80
      0001E3 6B 0B            [ 1]  396 	ld	(0x0b, sp), a
      0001E5 C6u00u04         [ 1]  397 	ld	a, _n+0
      0001E8 27 05            [ 1]  398 	jreq	00191$
      0001EA                        399 00190$:
      0001EA 04 0B            [ 1]  400 	srl	(0x0b, sp)
      0001EC 4A               [ 1]  401 	dec	a
      0001ED 26 FB            [ 1]  402 	jrne	00190$
      0001EF                        403 00191$:
      0001EF 9E               [ 1]  404 	ld	a, xh
      0001F0 1A 0B            [ 1]  405 	or	a, (0x0b, sp)
      0001F2 AE 50 0A         [ 2]  406 	ldw	x, #0x500a
      0001F5 F7               [ 1]  407 	ld	(x), a
                                    408 ;	./button_leds.c: 74: n++;
      0001F6 C6u00u04         [ 1]  409 	ld	a, _n+0
      0001F9 4C               [ 1]  410 	inc	a
                                    411 ;	./button_leds.c: 76: if ( n>=5 )
      0001FA C7u00u04         [ 1]  412 	ld	_n+0, a
      0001FD A1 05            [ 1]  413 	cp	a, #0x05
      0001FF 2F 04            [ 1]  414 	jrslt	00121$
                                    415 ;	./button_leds.c: 78: n=0;
      000201 72 5Fu00u04      [ 1]  416 	clr	_n+0
      000205                        417 00121$:
      000205 5B 0C            [ 2]  418 	addw	sp, #12
      000207 81               [ 4]  419 	ret
                                    420 ;	./button_leds.c: 85: int main(void)
                                    421 ;	-----------------------------------------
                                    422 ;	 function main
                                    423 ;	-----------------------------------------
      000208                        424 _main:
                                    425 ;	./button_leds.c: 87: PIN();
      000208 CDr00r2A         [ 4]  426 	call	_PIN
                                    427 ;	./button_leds.c: 89: while(1)
      00020B                        428 00102$:
                                    429 ;	./button_leds.c: 91: running();
      00020B CDr00r57         [ 4]  430 	call	_running
      00020E 20 FB            [ 2]  431 	jra	00102$
      000210 81               [ 4]  432 	ret
                                    433 	.area CODE
                                    434 	.area INITIALIZER
      000000                        435 __xinit__ms:
      000000 00 00 00 00            436 	.byte #0x00,#0x00,#0x00,#0x00	; 0
      000004                        437 __xinit__msb:
      000004 00 00 00 00            438 	.byte #0x00,#0x00,#0x00,#0x00	; 0
      000008                        439 __xinit__bs:
      000008 00                     440 	.db #0x00	;  0
                                    441 	.area CABS (ABS)
